(lp1
(lp2
I87
aI0
aI0
aI128
aa(lp3
I12
aI0
aI0
aI14
aa(lp4
I70
aI0
aI0
aI104
aa(lp5
I16
aI0
aI0
aI24
aa(lp6
I80
aI0
aI0
aI108
aa(lp7
I23
aI0
aI0
aI30
aa(lp8
I9
aI0
aI0
aI10
aa(lp9
I123
aI0
aI0
aI182
aa(lp10
I29
aI0
aI0
aI42
aa(lp11
I85
aI0
aI0
aI118
aa(lp12
I18
aI0
aI0
aI20
aa(lp13
I51
aI0
aI0
aI68
aa(lp14
I122
aI0
aI0
aI170
aa(lp15
I69
aI0
aI0
aI92
aa(lp16
I15
aI0
aI0
aI14
aa(lp17
I57
aI0
aI0
aI76
aa(lp18
I35
aI0
aI0
aI50
aa(lp19
I76
aI0
aI0
aI102
aa(lp20
I93
aI0
aI0
aI118
aa(lp21
I46
aI0
aI0
aI64
aa(lp22
I77
aI0
aI0
aI114
aa(lp23
I113
aI0
aI0
aI160
aa(lp24
I27
aI0
aI0
aI36
aa(lp25
I41
aI0
aI0
aI54
aa(lp26
I43
aI0
aI0
aI54
aa(lp27
I83
aI0
aI0
aI112
aa(lp28
I53
aI0
aI0
aI74
aa(lp29
I75
aI0
aI0
aI112
aa(lp30
I59
aI0
aI0
aI80
aa(lp31
I32
aI0
aI0
aI44
aa(lp32
I23
aI0
aI0
aI26
aa(lp33
I25
aI0
aI0
aI32
aa(lp34
I43
aI0
aI0
aI58
aa(lp35
I27
aI0
aI0
aI40
aa(lp36
I48
aI0
aI0
aI66
aa(lp37
I76
aI0
aI0
aI110
aa(lp38
I59
aI0
aI0
aI78
aa(lp39
I106
aI0
aI0
aI150
aa(lp40
I131
aI0
aI0
aI164
aa(lp41
I76
aI0
aI0
aI104
aa(lp42
I98
aI0
aI0
aI142
aa(lp43
I56
aI0
aI0
aI58
aa(lp44
I47
aI0
aI0
aI54
aa(lp45
I25
aI0
aI0
aI32
aa(lp46
I4
aI0
aI0
aI4
aa(lp47
I112
aI0
aI0
aI160
aa(lp48
I38
aI0
aI0
aI38
aa(lp49
I34
aI0
aI0
aI44
aa(lp50
I137
aI0
aI0
aI164
aa(lp51
I128
aI0
aI0
aI190
aa(lp52
I63
aI0
aI0
aI84
aa(lp53
I26
aI0
aI0
aI24
aa(lp54
I53
aI0
aI0
aI74
aa(lp55
I51
aI0
aI0
aI64
aa(lp56
I46
aI0
aI0
aI62
aa(lp57
I151
aI0
aI0
aI202
aa(lp58
I168
aI0
aI0
aI218
aa(lp59
I70
aI0
aI0
aI92
aa(lp60
I65
aI0
aI0
aI76
aa(lp61
I10
aI0
aI0
aI12
aa(lp62
I69
aI0
aI0
aI96
aa(lp63
I96
aI0
aI0
aI100
aa(lp64
I91
aI0
aI0
aI130
aa(lp65
I125
aI0
aI0
aI164
aa(lp66
I11
aI0
aI0
aI16
aa(lp67
I12
aI0
aI0
aI10
aa(lp68
I66
aI0
aI0
aI74
aa(lp69
I73
aI0
aI0
aI96
aa(lp70
I56
aI0
aI0
aI76
aa(lp71
I72
aI0
aI0
aI98
aa(lp72
I78
aI0
aI0
aI96
aa(lp73
I60
aI0
aI0
aI84
aa(lp74
I80
aI0
aI0
aI88
aa(lp75
I62
aI0
aI0
aI84
aa(lp76
I60
aI0
aI0
aI88
aa(lp77
I166
aI0
aI0
aI212
aa(lp78
I51
aI0
aI0
aI58
aa(lp79
I81
aI0
aI0
aI118
aa(lp80
I18
aI0
aI0
aI20
aa(lp81
I44
aI0
aI0
aI60
aa(lp82
I98
aI0
aI0
aI122
aa(lp83
I47
aI0
aI0
aI62
aa(lp84
I49
aI0
aI0
aI52
aa(lp85
I65
aI0
aI0
aI86
aa(lp86
I62
aI0
aI0
aI76
aa(lp87
I56
aI0
aI0
aI68
aa(lp88
I47
aI0
aI0
aI66
aa(lp89
I30
aI0
aI0
aI42
aa(lp90
I33
aI0
aI0
aI40
aa(lp91
I49
aI0
aI0
aI58
aa(lp92
I33
aI0
aI0
aI48
aa(lp93
I5
aI0
aI0
aI0
aa(lp94
I44
aI0
aI0
aI64
aa(lp95
I77
aI0
aI0
aI100
aa(lp96
I32
aI0
aI0
aI42
aa(lp97
I68
aI0
aI0
aI90
aa(lp98
I46
aI0
aI0
aI66
aa(lp99
I67
aI0
aI0
aI88
aa(lp100
I70
aI0
aI0
aI88
aa(lp101
I62
aI0
aI0
aI80
aa(lp102
I0
aI0
aI0
aI0
aa(lp103
I36
aI0
aI0
aI50
aa(lp104
I19
aI0
aI0
aI22
aa(lp105
I10
aI0
aI0
aI10
aa(lp106
I83
aI0
aI0
aI112
aa(lp107
I180
aI0
aI0
aI260
aa(lp108
I42
aI0
aI0
aI56
aa(lp109
I60
aI0
aI0
aI82
aa(lp110
I172
aI0
aI0
aI248
aa(lp111
I111
aI0
aI0
aI150
aa(lp112
I116
aI0
aI0
aI176
aa(lp113
I77
aI0
aI0
aI92
aa(lp114
I77
aI0
aI0
aI116
aa(lp115
I49
aI0
aI0
aI70
aa(lp116
I97
aI0
aI0
aI120
aa(lp117
I73
aI0
aI0
aI98
aa(lp118
I21
aI0
aI0
aI18
aa(lp119
I76
aI0
aI0
aI102
aa(lp120
I82
aI0
aI0
aI104
aa(lp121
I45
aI0
aI0
aI50
aa(lp122
I81
aI0
aI0
aI100
aa(lp123
I39
aI0
aI0
aI50
aa(lp124
I35
aI0
aI0
aI48
aa(lp125
I72
aI0
aI0
aI104
aa(lp126
I63
aI0
aI0
aI70
aa(lp127
I64
aI0
aI0
aI96
aa(lp128
I61
aI0
aI0
aI90
aa(lp129
I118
aI0
aI0
aI126
aa(lp130
I123
aI0
aI0
aI160
aa(lp131
I105
aI0
aI0
aI146
aa(lp132
I103
aI0
aI0
aI148
aa(lp133
I140
aI0
aI0
aI170
aa(lp134
I11
aI0
aI0
aI16
aa(lp135
I47
aI0
aI0
aI56
aa(lp136
I80
aI0
aI0
aI106
aa(lp137
I42
aI0
aI0
aI56
aa(lp138
I97
aI0
aI0
aI134
aa(lp139
I105
aI0
aI0
aI126
aa(lp140
I23
aI0
aI0
aI28
aa(lp141
I139
aI0
aI0
aI208
aa(lp142
I56
aI0
aI0
aI70
aa(lp143
I51
aI0
aI0
aI72
aa(lp144
I29
aI0
aI0
aI36
aa(lp145
I59
aI0
aI0
aI86
aa(lp146
I68
aI0
aI0
aI98
aa(lp147
I65
aI0
aI0
aI84
aa(lp148
I69
aI0
aI0
aI90
aa(lp149
I135
aI0
aI0
aI198
aa(lp150
I88
aI0
aI0
aI112
aa(lp151
I139
aI0
aI0
aI172
aa(lp152
I79
aI0
aI0
aI108
aa(lp153
I25
aI0
aI0
aI28
aa(lp154
I28
aI0
aI0
aI40
aa(lp155
I55
aI0
aI0
aI76
aa(lp156
I136
aI0
aI0
aI160
aa(lp157
I123
aI0
aI0
aI156
aa(lp158
I152
aI0
aI0
aI210
aa(lp159
I86
aI0
aI0
aI116
aa(lp160
I16
aI0
aI0
aI20
aa(lp161
I65
aI0
aI0
aI84
aa(lp162
I17
aI0
aI0
aI18
aa(lp163
I66
aI0
aI0
aI98
aa(lp164
I44
aI0
aI0
aI46
aa(lp165
I99
aI0
aI0
aI148
aa(lp166
I33
aI0
aI0
aI44
aa(lp167
I58
aI0
aI0
aI66
aa(lp168
I99
aI0
aI0
aI146
aa(lp169
I81
aI0
aI0
aI102
aa(lp170
I86
aI0
aI0
aI114
aa(lp171
I87
aI0
aI0
aI126
aa(lp172
I123
aI0
aI0
aI162
aa(lp173
I29
aI0
aI0
aI36
aa(lp174
I164
aI0
aI0
aI228
aa(lp175
I54
aI0
aI0
aI72
aa(lp176
I74
aI0
aI0
aI90
aa(lp177
I64
aI0
aI0
aI92
aa(lp178
I58
aI0
aI0
aI70
aa(lp179
I41
aI0
aI0
aI56
aa(lp180
I173
aI0
aI0
aI206
aa(lp181
I63
aI0
aI0
aI90
aa(lp182
I123
aI0
aI0
aI172
aa(lp183
I5
aI0
aI0
aI6
aa(lp184
I101
aI0
aI0
aI140
aa(lp185
I72
aI0
aI0
aI98
aa(lp186
I85
aI0
aI0
aI118
aa(lp187
I82
aI0
aI0
aI104
aa(lp188
I58
aI0
aI0
aI74
aa(lp189
I86
aI0
aI0
aI122
aa(lp190
I50
aI0
aI0
aI64
aa(lp191
I63
aI0
aI0
aI78
aa(lp192
I60
aI0
aI0
aI78
aa(lp193
I59
aI0
aI0
aI80
aa(lp194
I101
aI0
aI0
aI130
aa(lp195
I87
aI0
aI0
aI118
aa(lp196
I47
aI0
aI0
aI68
aa(lp197
I4
aI0
aI0
aI4
aa(lp198
I116
aI0
aI0
aI154
aa(lp199
I47
aI0
aI0
aI60
aa(lp200
I69
aI0
aI0
aI106
aa(lp201
I74
aI0
aI0
aI98
aa(lp202
I64
aI0
aI0
aI88
aa(lp203
I65
aI0
aI0
aI82
aa(lp204
I54
aI0
aI0
aI68
aa(lp205
I84
aI0
aI0
aI120
aa(lp206
I24
aI0
aI0
aI26
aa(lp207
I125
aI0
aI0
aI168
aa(lp208
I85
aI0
aI0
aI110
aa(lp209
I14
aI0
aI0
aI14
aa(lp210
I133
aI0
aI0
aI184
aa(lp211
I31
aI0
aI0
aI40
aa(lp212
I112
aI0
aI0
aI160
aa(lp213
I55
aI0
aI0
aI70
aa(lp214
I43
aI0
aI0
aI54
aa(lp215
I43
aI0
aI0
aI58
aa(lp216
I49
aI0
aI0
aI70
aa(lp217
I74
aI0
aI0
aI100
aa(lp218
I86
aI0
aI0
aI124
aa(lp219
I29
aI0
aI0
aI30
aa(lp220
I82
aI0
aI0
aI108
aa(lp221
I61
aI0
aI0
aI80
aa(lp222
I47
aI0
aI0
aI66
aa(lp223
I10
aI0
aI0
aI8
aa(lp224
I84
aI0
aI0
aI118
aa(lp225
I52
aI0
aI0
aI68
aa.